; Function Attrs: mustprogress uwtable
define void @_ZN2cv6detail20computeImageFeaturesERKNS_3PtrINS_9Feature2DEEERKNS_11_InputArrayERNS0_13ImageFeaturesES8_(ptr noundef nonnull readonly align 8 captures(none) dereferenceable(16) %0, ptr noundef nonnull align 8 dereferenceable(24) %1, ptr noundef nonnull align 8 dereferenceable(120) initializes((4, 12)) %2, ptr noundef nonnull align 8 dereferenceable(24) %3) local_unnamed_addr #3 personality ptr @__gxx_personality_v0 {
  %5 = alloca %"class.cv::_OutputArray", align 8
  %6 = tail call i64 @_ZNK2cv11_InputArray4sizeEi(ptr noundef nonnull align 8 dereferenceable(24) %1, i32 noundef -1)
  %7 = getelementptr inbounds nuw i8, ptr %2, i64 4
  store i64 %6, ptr %7, align 4
  %8 = load ptr, ptr %0, align 8, !tbaa !3
  %9 = getelementptr inbounds nuw i8, ptr %2, i64 16
  call void @llvm.lifetime.start.p0(i64 24, ptr nonnull %5) #26
  %10 = getelementptr inbounds nuw i8, ptr %2, i64 40
  %11 = getelementptr inbounds nuw i8, ptr %5, i64 8
  %12 = getelementptr inbounds nuw i8, ptr %5, i64 16
  store i64 0, ptr %12, align 8
  store i32 34209792, ptr %5, align 8, !tbaa !13
  store ptr %10, ptr %11, align 8, !tbaa !17
  %13 = load ptr, ptr %8, align 8, !tbaa !11
  %14 = getelementptr inbounds nuw i8, ptr %13, i64 96
  %15 = load ptr, ptr %14, align 8
  call void %15(ptr noundef nonnull align 8 dereferenceable(8) %8, ptr noundef nonnull align 8 dereferenceable(24) %1, ptr noundef nonnull align 8 dereferenceable(24) %3, ptr noundef nonnull align 8 dereferenceable(24) %9, ptr noundef nonnull align 8 dereferenceable(24) %5, i1 noundef zeroext false)
  call void @llvm.lifetime.end.p0(i64 24, ptr nonnull %5) #26
  ret void
}